; Function Attrs: nounwind uwtable
define noundef nonnull ptr @l_List_elem___at_Std_Tactic_BVDecide_LRAT_Internal_DefaultFormula_getRatClauseIndices___spec__1___boxed(ptr noundef %0, ptr noundef %1, ptr noundef %2) local_unnamed_addr #1 {
  %4 = getelementptr inbounds nuw i8, ptr %1, i64 8
  %5 = getelementptr inbounds nuw i8, ptr %1, i64 16
  br label %.backedge.i

.backedge.i:                                      ; preds = %.backedge.i.backedge, %3
  %.023.i = phi ptr [ %2, %3 ], [ %19, %.backedge.i.backedge ]
  %6 = ptrtoint ptr %.023.i to i64
  %7 = and i64 %6, 1
  %.not.i.i = icmp eq i64 %7, 0
  br i1 %.not.i.i, label %11, label %8

8:                                                ; preds = %.backedge.i
  %9 = lshr i64 %6, 1
  %10 = trunc i64 %9 to i32
  br label %lean_obj_tag.exit.i

11:                                               ; preds = %.backedge.i
  %12 = getelementptr i8, ptr %.023.i, i64 4
  %.val.i.i = load i32, ptr %12, align 4
  %13 = lshr i32 %.val.i.i, 24
  br label %lean_obj_tag.exit.i

lean_obj_tag.exit.i:                              ; preds = %11, %8
  %.0.i33.i = phi i32 [ %10, %8 ], [ %13, %11 ]
  %14 = icmp eq i32 %.0.i33.i, 0
  br i1 %14, label %l_List_elem___at_Std_Tactic_BVDecide_LRAT_Internal_DefaultFormula_getRatClauseIndices___spec__1.exit, label %15

15:                                               ; preds = %lean_obj_tag.exit.i
  %16 = getelementptr inbounds nuw i8, ptr %.023.i, i64 8
  %17 = load ptr, ptr %16, align 8, !tbaa !9
  %18 = getelementptr inbounds nuw i8, ptr %.023.i, i64 16
  %19 = load ptr, ptr %18, align 8, !tbaa !9
  %20 = load ptr, ptr %4, align 8, !tbaa !9
  %21 = load ptr, ptr %5, align 8, !tbaa !9
  %22 = getelementptr inbounds nuw i8, ptr %17, i64 8
  %23 = load ptr, ptr %22, align 8, !tbaa !9
  %24 = getelementptr inbounds nuw i8, ptr %17, i64 16
  %25 = load ptr, ptr %24, align 8, !tbaa !9
  %26 = ptrtoint ptr %20 to i64
  %27 = and i64 %26, 1
  %28 = icmp ne i64 %27, 0
  %29 = ptrtoint ptr %23 to i64
  %30 = and i64 %29, 1
  %31 = icmp ne i64 %30, 0
  %or.cond.i = select i1 %28, i1 %31, i1 false
  br i1 %or.cond.i, label %32, label %lean_nat_eq.exit.i, !prof !19

32:                                               ; preds = %15
  %33 = icmp eq ptr %20, %23
  br i1 %33, label %35, label %.backedge.i.backedge

lean_nat_eq.exit.i:                               ; preds = %15
  %34 = tail call zeroext i1 @lean_nat_big_eq(ptr noundef %20, ptr noundef %23) #5
  br i1 %34, label %35, label %.backedge.i.backedge

35:                                               ; preds = %lean_nat_eq.exit.i, %32
  %36 = ptrtoint ptr %21 to i64
  %37 = and i64 %36, 510
  %38 = icmp eq i64 %37, 0
  %39 = ptrtoint ptr %25 to i64
  %40 = and i64 %39, 510
  %.not.i13 = icmp eq i64 %40, 0
  br i1 %38, label %41, label %42

41:                                               ; preds = %35
  br i1 %.not.i13, label %l_List_elem___at_Std_Tactic_BVDecide_LRAT_Internal_DefaultFormula_getRatClauseIndices___spec__1.exit, label %.backedge.i.backedge

42:                                               ; preds = %35
  br i1 %.not.i13, label %.backedge.i.backedge, label %l_List_elem___at_Std_Tactic_BVDecide_LRAT_Internal_DefaultFormula_getRatClauseIndices___spec__1.exit

.backedge.i.backedge:                             ; preds = %42, %41, %lean_nat_eq.exit.i, %32
  br label %.backedge.i

l_List_elem___at_Std_Tactic_BVDecide_LRAT_Internal_DefaultFormula_getRatClauseIndices___spec__1.exit: ; preds = %lean_obj_tag.exit.i, %41, %42
  %.1.i = phi i64 [ 1, %lean_obj_tag.exit.i ], [ 3, %41 ], [ 3, %42 ]
  %43 = ptrtoint ptr %2 to i64
  %44 = and i64 %43, 1
  %.not = icmp eq i64 %44, 0
  br i1 %.not, label %45, label %lean_dec.exit8

45:                                               ; preds = %l_List_elem___at_Std_Tactic_BVDecide_LRAT_Internal_DefaultFormula_getRatClauseIndices___spec__1.exit
  %46 = load i32, ptr %2, align 4, !tbaa !4
  %47 = icmp sgt i32 %46, 1
  br i1 %47, label %48, label %50, !prof !11

48:                                               ; preds = %45
  %49 = add nsw i32 %46, -1
  store i32 %49, ptr %2, align 4, !tbaa !4
  br label %lean_dec.exit8

50:                                               ; preds = %45
  %.not.i = icmp eq i32 %46, 0
  br i1 %.not.i, label %lean_dec.exit8, label %51

51:                                               ; preds = %50
  tail call void @lean_dec_ref_cold(ptr noundef nonnull %2) #5
  br label %lean_dec.exit8

lean_dec.exit8:                                   ; preds = %51, %50, %48, %l_List_elem___at_Std_Tactic_BVDecide_LRAT_Internal_DefaultFormula_getRatClauseIndices___spec__1.exit
  %52 = ptrtoint ptr %1 to i64
  %53 = and i64 %52, 1
  %.not14 = icmp eq i64 %53, 0
  br i1 %.not14, label %54, label %lean_dec.exit7

54:                                               ; preds = %lean_dec.exit8
  %55 = load i32, ptr %1, align 4, !tbaa !4
  %56 = icmp sgt i32 %55, 1
  br i1 %56, label %57, label %59, !prof !11

57:                                               ; preds = %54
  %58 = add nsw i32 %55, -1
  store i32 %58, ptr %1, align 4, !tbaa !4
  br label %lean_dec.exit7

59:                                               ; preds = %54
  %.not.i9 = icmp eq i32 %55, 0
  br i1 %.not.i9, label %lean_dec.exit7, label %60

60:                                               ; preds = %59
  tail call void @lean_dec_ref_cold(ptr noundef nonnull %1) #5
  br label %lean_dec.exit7

lean_dec.exit7:                                   ; preds = %60, %59, %57, %lean_dec.exit8
  %61 = ptrtoint ptr %0 to i64
  %62 = and i64 %61, 1
  %.not15 = icmp eq i64 %62, 0
  br i1 %.not15, label %63, label %lean_dec.exit

63:                                               ; preds = %lean_dec.exit7
  %64 = load i32, ptr %0, align 4, !tbaa !4
  %65 = icmp sgt i32 %64, 1
  br i1 %65, label %66, label %68, !prof !11

66:                                               ; preds = %63
  %67 = add nsw i32 %64, -1
  store i32 %67, ptr %0, align 4, !tbaa !4
  br label %lean_dec.exit

68:                                               ; preds = %63
  %.not.i11 = icmp eq i32 %64, 0
  br i1 %.not.i11, label %lean_dec.exit, label %69

69:                                               ; preds = %68
  tail call void @lean_dec_ref_cold(ptr noundef nonnull %0) #5
  br label %lean_dec.exit

lean_dec.exit:                                    ; preds = %69, %68, %66, %lean_dec.exit7
  %70 = inttoptr i64 %.1.i to ptr
  ret ptr %70
}